target datalayout = "e-m:e-p270:32:32-p271:32:32-p272:64:64-i64:64-i128:128-f80:128-n8:16:32:64-S128"
target triple = "x86_64-pc-linux-gnu"

%struct.SResource = type { ptr, i8, i8, i32, i32, i32, i32, i32, ptr, %struct.UString }
%struct.UString = type { ptr, i32, i32 }
%class.IntVectorResource = type { %struct.SResource, i64, i64, ptr }

; Function Attrs: mustprogress uwtable
define dso_local void @_ZN17IntVectorResource11handleWriteEP14UNewDataMemoryPj(ptr noundef nonnull align 8 dereferenceable(80) %0, ptr noundef %1, ptr noundef %2) unnamed_addr #5 align 2 {
  %4 = alloca ptr, align 8
  %5 = alloca ptr, align 8
  %6 = alloca ptr, align 8
  %7 = alloca i32, align 4
  store ptr %0, ptr %4, align 8, !tbaa !89
  store ptr %1, ptr %5, align 8, !tbaa !132
  store ptr %2, ptr %6, align 8, !tbaa !96
  %8 = load ptr, ptr %4, align 8
  %9 = load ptr, ptr %5, align 8, !tbaa !132
  %10 = getelementptr inbounds nuw %class.IntVectorResource, ptr %8, i32 0, i32 1
  %11 = load i64, ptr %10, align 8, !tbaa !91
  %12 = trunc i64 %11 to i32
  call void @udata_write32(ptr noundef %9, i32 noundef %12)
  call void @llvm.lifetime.start.p0(i64 4, ptr %7) #3
  store i32 0, ptr %7, align 4, !tbaa !23
  br label %13

13:                                               ; preds = %28, %3
  %14 = load i32, ptr %7, align 4, !tbaa !23
  %15 = zext i32 %14 to i64
  %16 = getelementptr inbounds nuw %class.IntVectorResource, ptr %8, i32 0, i32 1
  %17 = load i64, ptr %16, align 8, !tbaa !91
  %18 = icmp ult i64 %15, %17
  br i1 %18, label %20, label %19

19:                                               ; preds = %13
  call void @llvm.lifetime.end.p0(i64 4, ptr %7) #3
  br label %31

20:                                               ; preds = %13
  %21 = load ptr, ptr %5, align 8, !tbaa !132
  %22 = getelementptr inbounds nuw %class.IntVectorResource, ptr %8, i32 0, i32 3
  %23 = load ptr, ptr %22, align 8, !tbaa !95
  %24 = load i32, ptr %7, align 4, !tbaa !23
  %25 = zext i32 %24 to i64
  %26 = getelementptr inbounds nuw i32, ptr %23, i64 %25
  %27 = load i32, ptr %26, align 4, !tbaa !23
  call void @udata_write32(ptr noundef %21, i32 noundef %27)
  br label %28

28:                                               ; preds = %20
  %29 = load i32, ptr %7, align 4, !tbaa !23
  %30 = add i32 %29, 1
  store i32 %30, ptr %7, align 4, !tbaa !23
  br label %13, !llvm.loop !136

31:                                               ; preds = %19
  %32 = getelementptr inbounds nuw %class.IntVectorResource, ptr %8, i32 0, i32 1
  %33 = load i64, ptr %32, align 8, !tbaa !91
  %34 = add i64 1, %33
  %35 = mul i64 %34, 4
  %36 = load ptr, ptr %6, align 8, !tbaa !96
  %37 = load i32, ptr %36, align 4, !tbaa !23
  %38 = zext i32 %37 to i64
  %39 = add i64 %38, %35
  %40 = trunc i64 %39 to i32
  store i32 %40, ptr %36, align 4, !tbaa !23
  ret void
}