; Function Attrs: mustprogress uwtable
define dso_local void @_ZN17IntVectorResource11handleWriteEP14UNewDataMemoryPj(ptr noundef nonnull readonly align 8 captures(none) dereferenceable(80) %0, ptr noundef %1, ptr noundef captures(none) %2) unnamed_addr #7 align 2 {
  %4 = getelementptr inbounds nuw i8, ptr %0, i64 56
  %5 = load i64, ptr %4, align 8, !tbaa !53
  %6 = trunc i64 %5 to i32
  tail call void @udata_write32(ptr noundef %1, i32 noundef %6)
  %7 = load i64, ptr %4, align 8, !tbaa !53
  %.not = icmp eq i64 %7, 0
  br i1 %.not, label %._crit_edge, label %.lr.ph

.lr.ph:                                           ; preds = %3
  %8 = getelementptr inbounds nuw i8, ptr %0, i64 72
  br label %14

._crit_edge.loopexit:                             ; preds = %14
  %9 = trunc i64 %21 to i32
  %10 = shl i32 %9, 2
  %11 = add i32 %10, 4
  br label %._crit_edge

._crit_edge:                                      ; preds = %._crit_edge.loopexit, %3
  %.lcssa = phi i32 [ 4, %3 ], [ %11, %._crit_edge.loopexit ]
  %12 = load i32, ptr %2, align 4, !tbaa !7
  %13 = add i32 %.lcssa, %12
  store i32 %13, ptr %2, align 4, !tbaa !7
  ret void

14:                                               ; preds = %.lr.ph, %14
  %15 = phi i64 [ 0, %.lr.ph ], [ %20, %14 ]
  %.08 = phi i32 [ 0, %.lr.ph ], [ %19, %14 ]
  %16 = load ptr, ptr %8, align 8, !tbaa !58
  %17 = getelementptr inbounds nuw i32, ptr %16, i64 %15
  %18 = load i32, ptr %17, align 4, !tbaa !7
  tail call void @udata_write32(ptr noundef %1, i32 noundef %18)
  %19 = add i32 %.08, 1
  %20 = zext i32 %19 to i64
  %21 = load i64, ptr %4, align 8, !tbaa !53
  %22 = icmp ugt i64 %21, %20
  br i1 %22, label %14, label %._crit_edge.loopexit, !llvm.loop !97
}